ARM GAS  C:\Users\bnels\AppData\Local\Temp\ccDgovd0.s 			page 1


   1              		.syntax unified
   2              		.cpu cortex-m0
   3              		.fpu softvfp
   4              		.eabi_attribute 20, 1
   5              		.eabi_attribute 21, 1
   6              		.eabi_attribute 23, 3
   7              		.eabi_attribute 24, 1
   8              		.eabi_attribute 25, 1
   9              		.eabi_attribute 26, 1
  10              		.eabi_attribute 30, 6
  11              		.eabi_attribute 34, 0
  12              		.eabi_attribute 18, 4
  13              		.thumb
  14              		.syntax unified
  15              		.file	"main.c"
  16              		.text
  17              	.Ltext0:
  18              		.cfi_sections	.debug_frame
  19              		.global	LED_state
  20              		.bss
  21              		.type	LED_state, %object
  22              		.size	LED_state, 1
  23              	LED_state:
  24 0000 00       		.space	1
  25              		.section	.rodata
  26              		.align	2
  27              	.LC0:
  28 0000 0D0A00   		.ascii	"\015\012\000"
  29 0003 00       		.align	2
  30              	.LC2:
  31 0004 2A2A2A2A 		.ascii	"************************************************\015"
  31      2A2A2A2A 
  31      2A2A2A2A 
  31      2A2A2A2A 
  31      2A2A2A2A 
  32 0035 0A00     		.ascii	"\012\000"
  33 0037 00       		.align	2
  34              	.LC4:
  35 0038 2A205369 		.ascii	"* Simple serial communication UART base system *\015"
  35      6D706C65 
  35      20736572 
  35      69616C20 
  35      636F6D6D 
  36 0069 0A00     		.ascii	"\012\000"
  37              		.section	.text.main,"ax",%progbits
  38              		.align	2
  39              		.global	main
  40              		.code	16
  41              		.thumb_func
  42              		.type	main, %function
  43              	main:
  44              	.LFB34:
  45              		.file 1 "main.c"
   1:main.c        **** /*******************************************************************************
   2:main.c        **** * File Name: main.c
   3:main.c        **** *
   4:main.c        **** * Version: 1.20
ARM GAS  C:\Users\bnels\AppData\Local\Temp\ccDgovd0.s 			page 2


   5:main.c        **** *
   6:main.c        **** * Description:
   7:main.c        **** *  This example project demonstrates the basic operation of the SCB component
   8:main.c        **** *  in the UART mode. The polling method is used to wait for received character.
   9:main.c        **** *  As soon as character is received it is transmitted back. The serial terminal
  10:main.c        **** *  can be used on the PC to send characters and get them back.
  11:main.c        **** *  The example will echo every received character.
  12:main.c        **** *
  13:main.c        **** ********************************************************************************
  14:main.c        **** * Copyright 2014-2015, Cypress Semiconductor Corporation. All rights reserved.
  15:main.c        **** * This software is owned by Cypress Semiconductor Corporation and is protected
  16:main.c        **** * by and subject to worldwide patent and copyright laws and treaties.
  17:main.c        **** * Therefore, you may use this software only as provided in the license agreement
  18:main.c        **** * accompanying the software package from which you obtained this software.
  19:main.c        **** * CYPRESS AND ITS SUPPLIERS MAKE NO WARRANTY OF ANY KIND, EXPRESS OR IMPLIED,
  20:main.c        **** * WITH REGARD TO THIS SOFTWARE, INCLUDING, BUT NOT LIMITED TO, NONINFRINGEMENT,
  21:main.c        **** * IMPLIED WARRANTIES OF MERCHANTABILITY AND FITNESS FOR A PARTICULAR PURPOSE.
  22:main.c        **** *******************************************************************************/
  23:main.c        **** 
  24:main.c        **** #include "main.h"
  25:main.c        **** #include <project.h>
  26:main.c        **** #include <string.h>
  27:main.c        **** #include <stdlib.h>
  28:main.c        **** 
  29:main.c        **** uint8 LED_state = 0u;
  30:main.c        **** 
  31:main.c        **** 
  32:main.c        **** /*******************************************************************************
  33:main.c        **** * Function Name: main
  34:main.c        **** ********************************************************************************
  35:main.c        **** * Summary:
  36:main.c        **** *  The main function performs the following actions:
  37:main.c        **** *   1. Sets up UART component.
  38:main.c        **** *   2. UART sends text header into the serial terminal.
  39:main.c        **** *   3. UART waits for the characters to send them back to the serial terminal.
  40:main.c        **** *
  41:main.c        **** * Parameters:
  42:main.c        **** *  None
  43:main.c        **** *
  44:main.c        **** * Return:
  45:main.c        **** *  None
  46:main.c        **** *
  47:main.c        **** *******************************************************************************/
  48:main.c        **** int main()
  49:main.c        **** {
  46              		.loc 1 49 0
  47              		.cfi_startproc
  48              		@ args = 0, pretend = 0, frame = 0
  49              		@ frame_needed = 1, uses_anonymous_args = 0
  50 0000 80B5     		push	{r7, lr}
  51              		.cfi_def_cfa_offset 8
  52              		.cfi_offset 7, -8
  53              		.cfi_offset 14, -4
  54 0002 00AF     		add	r7, sp, #0
  55              		.cfi_def_cfa_register 7
  50:main.c        ****     setup();
  56              		.loc 1 50 0
ARM GAS  C:\Users\bnels\AppData\Local\Temp\ccDgovd0.s 			page 3


  57 0004 FFF7FEFF 		bl	setup
  51:main.c        ****     
  52:main.c        ****     UART_UartPutString("\r\n");   
  58              		.loc 1 52 0
  59 0008 0B4B     		ldr	r3, .L3
  60 000a 1800     		movs	r0, r3
  61 000c FFF7FEFF 		bl	UART_UartPutString
  53:main.c        ****     UART_UartPutString("************************************************\r\n");
  62              		.loc 1 53 0
  63 0010 0A4B     		ldr	r3, .L3+4
  64 0012 1800     		movs	r0, r3
  65 0014 FFF7FEFF 		bl	UART_UartPutString
  54:main.c        ****     UART_UartPutString("* Simple serial communication UART base system *\r\n");
  66              		.loc 1 54 0
  67 0018 094B     		ldr	r3, .L3+8
  68 001a 1800     		movs	r0, r3
  69 001c FFF7FEFF 		bl	UART_UartPutString
  55:main.c        ****     UART_UartPutString("************************************************\r\n");
  70              		.loc 1 55 0
  71 0020 064B     		ldr	r3, .L3+4
  72 0022 1800     		movs	r0, r3
  73 0024 FFF7FEFF 		bl	UART_UartPutString
  56:main.c        ****     UART_UartPutString("\r\n");
  74              		.loc 1 56 0
  75 0028 034B     		ldr	r3, .L3
  76 002a 1800     		movs	r0, r3
  77 002c FFF7FEFF 		bl	UART_UartPutString
  78              	.L2:
  57:main.c        **** 
  58:main.c        ****     for (;;)
  59:main.c        ****     {
  60:main.c        ****         UART_GetInput();
  79              		.loc 1 60 0 discriminator 1
  80 0030 FFF7FEFF 		bl	UART_GetInput
  61:main.c        ****     }
  81              		.loc 1 61 0 discriminator 1
  82 0034 FCE7     		b	.L2
  83              	.L4:
  84 0036 C046     		.align	2
  85              	.L3:
  86 0038 00000000 		.word	.LC0
  87 003c 04000000 		.word	.LC2
  88 0040 38000000 		.word	.LC4
  89              		.cfi_endproc
  90              	.LFE34:
  91              		.size	main, .-main
  92              		.section	.text.setup,"ax",%progbits
  93              		.align	2
  94              		.global	setup
  95              		.code	16
  96              		.thumb_func
  97              		.type	setup, %function
  98              	setup:
  99              	.LFB35:
  62:main.c        **** }
  63:main.c        **** 
  64:main.c        **** /* Setup */
ARM GAS  C:\Users\bnels\AppData\Local\Temp\ccDgovd0.s 			page 4


  65:main.c        **** int setup()
  66:main.c        **** {
 100              		.loc 1 66 0
 101              		.cfi_startproc
 102              		@ args = 0, pretend = 0, frame = 0
 103              		@ frame_needed = 1, uses_anonymous_args = 0
 104 0000 80B5     		push	{r7, lr}
 105              		.cfi_def_cfa_offset 8
 106              		.cfi_offset 7, -8
 107              		.cfi_offset 14, -4
 108 0002 00AF     		add	r7, sp, #0
 109              		.cfi_def_cfa_register 7
  67:main.c        ****     /* Start SCB (UART mode) operation */
  68:main.c        ****     UART_Start();
 110              		.loc 1 68 0
 111 0004 FFF7FEFF 		bl	UART_Start
  69:main.c        ****     
  70:main.c        ****     return 0;
 112              		.loc 1 70 0
 113 0008 0023     		movs	r3, #0
  71:main.c        **** }
 114              		.loc 1 71 0
 115 000a 1800     		movs	r0, r3
 116 000c BD46     		mov	sp, r7
 117              		@ sp needed
 118 000e 80BD     		pop	{r7, pc}
 119              		.cfi_endproc
 120              	.LFE35:
 121              		.size	setup, .-setup
 122              		.section	.rodata
 123 006b 00       		.align	2
 124              	.LC6:
 125 006c 3A2000   		.ascii	": \000"
 126 006f 00       		.align	2
 127              	.LC8:
 128 0070 0D0A4F4B 		.ascii	"\015\012OK, thanks!\015\012\000"
 128      2C207468 
 128      616E6B73 
 128      210D0A00 
 129              		.align	2
 130              	.LC10:
 131 0080 596F7572 		.ascii	"Your command: \000"
 131      20636F6D 
 131      6D616E64 
 131      3A2000
 132              		.section	.text.UART_GetInput,"ax",%progbits
 133              		.align	2
 134              		.global	UART_GetInput
 135              		.code	16
 136              		.thumb_func
 137              		.type	UART_GetInput, %function
 138              	UART_GetInput:
 139              	.LFB36:
  72:main.c        **** 
  73:main.c        **** /* Gets an input from a user over UART. Returns when a CR is received. */
  74:main.c        **** int UART_GetInput() {
 140              		.loc 1 74 0
ARM GAS  C:\Users\bnels\AppData\Local\Temp\ccDgovd0.s 			page 5


 141              		.cfi_startproc
 142              		@ args = 0, pretend = 0, frame = 80
 143              		@ frame_needed = 1, uses_anonymous_args = 0
 144 0000 80B5     		push	{r7, lr}
 145              		.cfi_def_cfa_offset 8
 146              		.cfi_offset 7, -8
 147              		.cfi_offset 14, -4
 148 0002 94B0     		sub	sp, sp, #80
 149              		.cfi_def_cfa_offset 88
 150 0004 00AF     		add	r7, sp, #0
 151              		.cfi_def_cfa_register 7
  75:main.c        **** 
  76:main.c        ****     uint32 ch;
  77:main.c        ****     uint8 done = 0u;
 152              		.loc 1 77 0
 153 0006 4F23     		movs	r3, #79
 154 0008 FB18     		adds	r3, r7, r3
 155 000a 0022     		movs	r2, #0
 156 000c 1A70     		strb	r2, [r3]
  78:main.c        ****     uint8 args = 1;
 157              		.loc 1 78 0
 158 000e 4E23     		movs	r3, #78
 159 0010 FB18     		adds	r3, r7, r3
 160 0012 0122     		movs	r2, #1
 161 0014 1A70     		strb	r2, [r3]
  79:main.c        ****     
  80:main.c        ****     char cmd[MAX_COMMAND_LENGTH];
  81:main.c        ****     
  82:main.c        ****     uint32 ch_received = 0;
 162              		.loc 1 82 0
 163 0016 0023     		movs	r3, #0
 164 0018 BB64     		str	r3, [r7, #72]
  83:main.c        ****     
  84:main.c        ****     UART_UartPutString(": ");
 165              		.loc 1 84 0
 166 001a 314B     		ldr	r3, .L14
 167 001c 1800     		movs	r0, r3
 168 001e FFF7FEFF 		bl	UART_UartPutString
  85:main.c        ****     
  86:main.c        ****     while (done != 1u || ch_received == MAX_COMMAND_LENGTH) 
 169              		.loc 1 86 0
 170 0022 37E0     		b	.L8
 171              	.L12:
  87:main.c        ****     {
  88:main.c        ****         ch = UART_UartGetChar();
 172              		.loc 1 88 0
 173 0024 FFF7FEFF 		bl	UART_UartGetChar
 174 0028 0300     		movs	r3, r0
 175 002a 7B64     		str	r3, [r7, #68]
 176 002c 4F23     		movs	r3, #79
 177 002e FB18     		adds	r3, r7, r3
 178 0030 4F22     		movs	r2, #79
 179 0032 BA18     		adds	r2, r7, r2
 180 0034 1278     		ldrb	r2, [r2]
 181 0036 1A70     		strb	r2, [r3]
 182 0038 4E23     		movs	r3, #78
 183 003a FB18     		adds	r3, r7, r3
ARM GAS  C:\Users\bnels\AppData\Local\Temp\ccDgovd0.s 			page 6


 184 003c 4E22     		movs	r2, #78
 185 003e BA18     		adds	r2, r7, r2
 186 0040 1278     		ldrb	r2, [r2]
 187 0042 1A70     		strb	r2, [r3]
  89:main.c        ****         
  90:main.c        ****         if (ch != 0u)
 188              		.loc 1 90 0
 189 0044 7B6C     		ldr	r3, [r7, #68]
 190 0046 002B     		cmp	r3, #0
 191 0048 24D0     		beq	.L8
  91:main.c        ****         {
  92:main.c        ****             UART_UartPutChar(ch);
 192              		.loc 1 92 0
 193 004a 7B6C     		ldr	r3, [r7, #68]
 194 004c 1800     		movs	r0, r3
 195 004e FFF7FEFF 		bl	UART_SpiUartWriteTxData
  93:main.c        ****             
  94:main.c        ****             if (ch == ' ')
 196              		.loc 1 94 0
 197 0052 7B6C     		ldr	r3, [r7, #68]
 198 0054 202B     		cmp	r3, #32
 199 0056 06D1     		bne	.L9
  95:main.c        ****                 args++;
 200              		.loc 1 95 0
 201 0058 4E23     		movs	r3, #78
 202 005a FB18     		adds	r3, r7, r3
 203 005c 1A78     		ldrb	r2, [r3]
 204 005e 4E23     		movs	r3, #78
 205 0060 FB18     		adds	r3, r7, r3
 206 0062 0132     		adds	r2, r2, #1
 207 0064 1A70     		strb	r2, [r3]
 208              	.L9:
  96:main.c        ****             
  97:main.c        ****             if (ch == '\r') 
 209              		.loc 1 97 0
 210 0066 7B6C     		ldr	r3, [r7, #68]
 211 0068 0D2B     		cmp	r3, #13
 212 006a 09D1     		bne	.L10
  98:main.c        ****             {
  99:main.c        ****                 done = 1u;
 213              		.loc 1 99 0
 214 006c 4F23     		movs	r3, #79
 215 006e FB18     		adds	r3, r7, r3
 216 0070 0122     		movs	r2, #1
 217 0072 1A70     		strb	r2, [r3]
 100:main.c        ****                 cmd[ch_received] = '\0';
 218              		.loc 1 100 0
 219 0074 3A1D     		adds	r2, r7, #4
 220 0076 BB6C     		ldr	r3, [r7, #72]
 221 0078 D318     		adds	r3, r2, r3
 222 007a 0022     		movs	r2, #0
 223 007c 1A70     		strb	r2, [r3]
 224 007e 06E0     		b	.L11
 225              	.L10:
 101:main.c        ****             } else 
 102:main.c        ****             {
 103:main.c        ****                 cmd[ch_received] = (char) ch;
ARM GAS  C:\Users\bnels\AppData\Local\Temp\ccDgovd0.s 			page 7


 226              		.loc 1 103 0
 227 0080 7B6C     		ldr	r3, [r7, #68]
 228 0082 D9B2     		uxtb	r1, r3
 229 0084 3A1D     		adds	r2, r7, #4
 230 0086 BB6C     		ldr	r3, [r7, #72]
 231 0088 D318     		adds	r3, r2, r3
 232 008a 0A1C     		adds	r2, r1, #0
 233 008c 1A70     		strb	r2, [r3]
 234              	.L11:
 104:main.c        ****             }
 105:main.c        ****             
 106:main.c        ****             ch_received++;
 235              		.loc 1 106 0
 236 008e BB6C     		ldr	r3, [r7, #72]
 237 0090 0133     		adds	r3, r3, #1
 238 0092 BB64     		str	r3, [r7, #72]
 239              	.L8:
  86:main.c        ****     {
 240              		.loc 1 86 0
 241 0094 4F23     		movs	r3, #79
 242 0096 FB18     		adds	r3, r7, r3
 243 0098 1B78     		ldrb	r3, [r3]
 244 009a 012B     		cmp	r3, #1
 245 009c C2D1     		bne	.L12
  86:main.c        ****     {
 246              		.loc 1 86 0 is_stmt 0 discriminator 1
 247 009e BB6C     		ldr	r3, [r7, #72]
 248 00a0 402B     		cmp	r3, #64
 249 00a2 BFD0     		beq	.L12
 107:main.c        ****         }
 108:main.c        ****     }
 109:main.c        ****     
 110:main.c        ****     UART_UartPutString("\r\nOK, thanks!\r\n");
 250              		.loc 1 110 0 is_stmt 1
 251 00a4 0F4B     		ldr	r3, .L14+4
 252 00a6 1800     		movs	r0, r3
 253 00a8 FFF7FEFF 		bl	UART_UartPutString
 111:main.c        ****     UART_UartPutString("Your command: ");
 254              		.loc 1 111 0
 255 00ac 0E4B     		ldr	r3, .L14+8
 256 00ae 1800     		movs	r0, r3
 257 00b0 FFF7FEFF 		bl	UART_UartPutString
 112:main.c        ****     UART_UartPutString(cmd);
 258              		.loc 1 112 0
 259 00b4 3B1D     		adds	r3, r7, #4
 260 00b6 1800     		movs	r0, r3
 261 00b8 FFF7FEFF 		bl	UART_UartPutString
 113:main.c        ****     UART_UartPutString("\r\n");
 262              		.loc 1 113 0
 263 00bc 0B4B     		ldr	r3, .L14+12
 264 00be 1800     		movs	r0, r3
 265 00c0 FFF7FEFF 		bl	UART_UartPutString
 114:main.c        ****     
 115:main.c        ****     parse_command(cmd, args);
 266              		.loc 1 115 0
 267 00c4 4E23     		movs	r3, #78
 268 00c6 FB18     		adds	r3, r7, r3
ARM GAS  C:\Users\bnels\AppData\Local\Temp\ccDgovd0.s 			page 8


 269 00c8 1A78     		ldrb	r2, [r3]
 270 00ca 3B1D     		adds	r3, r7, #4
 271 00cc 1100     		movs	r1, r2
 272 00ce 1800     		movs	r0, r3
 273 00d0 FFF7FEFF 		bl	parse_command
 116:main.c        **** 
 117:main.c        ****     return 0;
 274              		.loc 1 117 0
 275 00d4 0023     		movs	r3, #0
 118:main.c        **** }
 276              		.loc 1 118 0
 277 00d6 1800     		movs	r0, r3
 278 00d8 BD46     		mov	sp, r7
 279 00da 14B0     		add	sp, sp, #80
 280              		@ sp needed
 281 00dc 80BD     		pop	{r7, pc}
 282              	.L15:
 283 00de C046     		.align	2
 284              	.L14:
 285 00e0 6C000000 		.word	.LC6
 286 00e4 70000000 		.word	.LC8
 287 00e8 80000000 		.word	.LC10
 288 00ec 00000000 		.word	.LC0
 289              		.cfi_endproc
 290              	.LFE36:
 291              		.size	UART_GetInput, .-UART_GetInput
 292              		.section	.rodata
 293 008f 00       		.align	2
 294              	.LC13:
 295 0090 4C454420 		.ascii	"LED on\000"
 295      6F6E00
 296 0097 00       		.align	2
 297              	.LC15:
 298 0098 4C454420 		.ascii	"LED off\000"
 298      6F666600 
 299              		.align	2
 300              	.LC17:
 301 00a0 4920646F 		.ascii	"I don't understand that command!\015\012\000"
 301      6E277420 
 301      756E6465 
 301      72737461 
 301      6E642074 
 302              		.section	.text.parse_command,"ax",%progbits
 303              		.align	2
 304              		.global	parse_command
 305              		.code	16
 306              		.thumb_func
 307              		.type	parse_command, %function
 308              	parse_command:
 309              	.LFB37:
 119:main.c        **** 
 120:main.c        **** /* Parse arguments. For now, only "LED on" and "LED off" are supported but eventually will 
 121:main.c        ****    include support for parsing multiple args for "set value" operations */
 122:main.c        **** int parse_command(char* cmd, uint8 args)
 123:main.c        **** {
 310              		.loc 1 123 0
 311              		.cfi_startproc
ARM GAS  C:\Users\bnels\AppData\Local\Temp\ccDgovd0.s 			page 9


 312              		@ args = 0, pretend = 0, frame = 8
 313              		@ frame_needed = 1, uses_anonymous_args = 0
 314 0000 80B5     		push	{r7, lr}
 315              		.cfi_def_cfa_offset 8
 316              		.cfi_offset 7, -8
 317              		.cfi_offset 14, -4
 318 0002 82B0     		sub	sp, sp, #8
 319              		.cfi_def_cfa_offset 16
 320 0004 00AF     		add	r7, sp, #0
 321              		.cfi_def_cfa_register 7
 322 0006 7860     		str	r0, [r7, #4]
 323 0008 0A00     		movs	r2, r1
 324 000a FB1C     		adds	r3, r7, #3
 325 000c 1A70     		strb	r2, [r3]
 124:main.c        ****     if (strcmp(cmd, "LED on") == 0)
 326              		.loc 1 124 0
 327 000e 114A     		ldr	r2, .L21
 328 0010 7B68     		ldr	r3, [r7, #4]
 329 0012 1100     		movs	r1, r2
 330 0014 1800     		movs	r0, r3
 331 0016 FFF7FEFF 		bl	strcmp
 332 001a 031E     		subs	r3, r0, #0
 333 001c 03D1     		bne	.L17
 125:main.c        ****     {
 126:main.c        ****         LED_ControlReg_Write(1u);
 334              		.loc 1 126 0
 335 001e 0120     		movs	r0, #1
 336 0020 FFF7FEFF 		bl	LED_ControlReg_Write
 337 0024 0FE0     		b	.L18
 338              	.L17:
 127:main.c        ****     }
 128:main.c        ****     else if (strcmp(cmd, "LED off") == 0) 
 339              		.loc 1 128 0
 340 0026 0C4A     		ldr	r2, .L21+4
 341 0028 7B68     		ldr	r3, [r7, #4]
 342 002a 1100     		movs	r1, r2
 343 002c 1800     		movs	r0, r3
 344 002e FFF7FEFF 		bl	strcmp
 345 0032 031E     		subs	r3, r0, #0
 346 0034 03D1     		bne	.L19
 129:main.c        ****     {
 130:main.c        ****         LED_ControlReg_Write(0u);
 347              		.loc 1 130 0
 348 0036 0020     		movs	r0, #0
 349 0038 FFF7FEFF 		bl	LED_ControlReg_Write
 350 003c 03E0     		b	.L18
 351              	.L19:
 131:main.c        ****     }
 132:main.c        ****     else
 133:main.c        ****         UART_UartPutString("I don't understand that command!\r\n");      
 352              		.loc 1 133 0
 353 003e 074B     		ldr	r3, .L21+8
 354 0040 1800     		movs	r0, r3
 355 0042 FFF7FEFF 		bl	UART_UartPutString
 356              	.L18:
 134:main.c        ****     return args;
 357              		.loc 1 134 0
ARM GAS  C:\Users\bnels\AppData\Local\Temp\ccDgovd0.s 			page 10


 358 0046 FB1C     		adds	r3, r7, #3
 359 0048 1B78     		ldrb	r3, [r3]
 135:main.c        **** }
 360              		.loc 1 135 0
 361 004a 1800     		movs	r0, r3
 362 004c BD46     		mov	sp, r7
 363 004e 02B0     		add	sp, sp, #8
 364              		@ sp needed
 365 0050 80BD     		pop	{r7, pc}
 366              	.L22:
 367 0052 C046     		.align	2
 368              	.L21:
 369 0054 90000000 		.word	.LC13
 370 0058 98000000 		.word	.LC15
 371 005c A0000000 		.word	.LC17
 372              		.cfi_endproc
 373              	.LFE37:
 374              		.size	parse_command, .-parse_command
 375              		.text
 376              	.Letext0:
 377              		.file 2 "Generated_Source\\PSoC4/cytypes.h"