ARM GAS  C:\Users\bnels\AppData\Local\Temp\ccXUBRyg.s 			page 1


   1              		.syntax unified
   2              		.cpu cortex-m0
   3              		.fpu softvfp
   4              		.eabi_attribute 20, 1
   5              		.eabi_attribute 21, 1
   6              		.eabi_attribute 23, 3
   7              		.eabi_attribute 24, 1
   8              		.eabi_attribute 25, 1
   9              		.eabi_attribute 26, 1
  10              		.eabi_attribute 30, 6
  11              		.eabi_attribute 34, 0
  12              		.eabi_attribute 18, 4
  13              		.thumb
  14              		.syntax unified
  15              		.file	"serial.c"
  16              		.text
  17              	.Ltext0:
  18              		.cfi_sections	.debug_frame
  19              		.section	.text.ups,"ax",%progbits
  20              		.align	2
  21              		.global	ups
  22              		.code	16
  23              		.thumb_func
  24              		.type	ups, %function
  25              	ups:
  26              	.LFB35:
  27              		.file 1 "serial.c"
   1:serial.c      **** /* ========================================
   2:serial.c      ****  *
   3:serial.c      ****  * Copyright YOUR COMPANY, THE YEAR
   4:serial.c      ****  * All Rights Reserved
   5:serial.c      ****  * UNPUBLISHED, LICENSED SOFTWARE.
   6:serial.c      ****  *
   7:serial.c      ****  * CONFIDENTIAL AND PROPRIETARY INFORMATION
   8:serial.c      ****  * WHICH IS THE PROPERTY OF your company.
   9:serial.c      ****  *
  10:serial.c      ****  * ========================================
  11:serial.c      **** */
  12:serial.c      **** 
  13:serial.c      **** #include <serial.h>
  14:serial.c      **** 
  15:serial.c      **** extern uint16 ADC_result;
  16:serial.c      **** 
  17:serial.c      **** // Wrapper function for UART_UartPutString because that is long and rather tedious to type repeated
  18:serial.c      **** // but I also don't want to mess with the generated source code too much u(art) p(ut) s(tring)
  19:serial.c      **** void ups(const char8 string[])
  20:serial.c      **** {
  28              		.loc 1 20 0
  29              		.cfi_startproc
  30              		@ args = 0, pretend = 0, frame = 8
  31              		@ frame_needed = 1, uses_anonymous_args = 0
  32 0000 80B5     		push	{r7, lr}
  33              		.cfi_def_cfa_offset 8
  34              		.cfi_offset 7, -8
  35              		.cfi_offset 14, -4
  36 0002 82B0     		sub	sp, sp, #8
  37              		.cfi_def_cfa_offset 16
ARM GAS  C:\Users\bnels\AppData\Local\Temp\ccXUBRyg.s 			page 2


  38 0004 00AF     		add	r7, sp, #0
  39              		.cfi_def_cfa_register 7
  40 0006 7860     		str	r0, [r7, #4]
  21:serial.c      ****     UART_UartPutString(string);
  41              		.loc 1 21 0
  42 0008 7B68     		ldr	r3, [r7, #4]
  43 000a 1800     		movs	r0, r3
  44 000c FFF7FEFF 		bl	UART_UartPutString
  22:serial.c      **** }
  45              		.loc 1 22 0
  46 0010 C046     		nop
  47 0012 BD46     		mov	sp, r7
  48 0014 02B0     		add	sp, sp, #8
  49              		@ sp needed
  50 0016 80BD     		pop	{r7, pc}
  51              		.cfi_endproc
  52              	.LFE35:
  53              		.size	ups, .-ups
  54              		.section	.rodata
  55              		.align	2
  56              	.LC0:
  57 0000 0D0A00   		.ascii	"\015\012\000"
  58              		.section	.text.upl,"ax",%progbits
  59              		.align	2
  60              		.global	upl
  61              		.code	16
  62              		.thumb_func
  63              		.type	upl, %function
  64              	upl:
  65              	.LFB36:
  23:serial.c      **** 
  24:serial.c      **** // Wrapper function that appends a return + newline
  25:serial.c      **** // u(art) p(ut) l(line)
  26:serial.c      **** void upl(const char8 string[])
  27:serial.c      **** {
  66              		.loc 1 27 0
  67              		.cfi_startproc
  68              		@ args = 0, pretend = 0, frame = 8
  69              		@ frame_needed = 1, uses_anonymous_args = 0
  70 0000 80B5     		push	{r7, lr}
  71              		.cfi_def_cfa_offset 8
  72              		.cfi_offset 7, -8
  73              		.cfi_offset 14, -4
  74 0002 82B0     		sub	sp, sp, #8
  75              		.cfi_def_cfa_offset 16
  76 0004 00AF     		add	r7, sp, #0
  77              		.cfi_def_cfa_register 7
  78 0006 7860     		str	r0, [r7, #4]
  28:serial.c      ****     ups(string);
  79              		.loc 1 28 0
  80 0008 7B68     		ldr	r3, [r7, #4]
  81 000a 1800     		movs	r0, r3
  82 000c FFF7FEFF 		bl	ups
  29:serial.c      ****     ups("\r\n");
  83              		.loc 1 29 0
  84 0010 034B     		ldr	r3, .L3
  85 0012 1800     		movs	r0, r3
ARM GAS  C:\Users\bnels\AppData\Local\Temp\ccXUBRyg.s 			page 3


  86 0014 FFF7FEFF 		bl	ups
  30:serial.c      **** }
  87              		.loc 1 30 0
  88 0018 C046     		nop
  89 001a BD46     		mov	sp, r7
  90 001c 02B0     		add	sp, sp, #8
  91              		@ sp needed
  92 001e 80BD     		pop	{r7, pc}
  93              	.L4:
  94              		.align	2
  95              	.L3:
  96 0020 00000000 		.word	.LC0
  97              		.cfi_endproc
  98              	.LFE36:
  99              		.size	upl, .-upl
 100              		.section	.rodata
 101 0003 00       		.align	2
 102              	.LC2:
 103 0004 3A2000   		.ascii	": \000"
 104 0007 00       		.align	2
 105              	.LC4:
 106 0008 0D0A4F4B 		.ascii	"\015\012OK, thanks!\015\012\000"
 106      2C207468 
 106      616E6B73 
 106      210D0A00 
 107              		.align	2
 108              	.LC6:
 109 0018 596F7572 		.ascii	"Your command: \000"
 109      20636F6D 
 109      6D616E64 
 109      3A2000
 110              		.section	.text.UART_GetInput,"ax",%progbits
 111              		.align	2
 112              		.global	UART_GetInput
 113              		.code	16
 114              		.thumb_func
 115              		.type	UART_GetInput, %function
 116              	UART_GetInput:
 117              	.LFB37:
  31:serial.c      **** 
  32:serial.c      **** /* Gets an input from a user over UART. Returns when a CR is received. */
  33:serial.c      **** int UART_GetInput() {
 118              		.loc 1 33 0
 119              		.cfi_startproc
 120              		@ args = 0, pretend = 0, frame = 80
 121              		@ frame_needed = 1, uses_anonymous_args = 0
 122 0000 80B5     		push	{r7, lr}
 123              		.cfi_def_cfa_offset 8
 124              		.cfi_offset 7, -8
 125              		.cfi_offset 14, -4
 126 0002 94B0     		sub	sp, sp, #80
 127              		.cfi_def_cfa_offset 88
 128 0004 00AF     		add	r7, sp, #0
 129              		.cfi_def_cfa_register 7
  34:serial.c      **** 
  35:serial.c      ****     uint32 ch;
  36:serial.c      ****     uint8 done = 0u;
ARM GAS  C:\Users\bnels\AppData\Local\Temp\ccXUBRyg.s 			page 4


 130              		.loc 1 36 0
 131 0006 4F23     		movs	r3, #79
 132 0008 FB18     		adds	r3, r7, r3
 133 000a 0022     		movs	r2, #0
 134 000c 1A70     		strb	r2, [r3]
  37:serial.c      ****     uint8 args = 1;
 135              		.loc 1 37 0
 136 000e 4E23     		movs	r3, #78
 137 0010 FB18     		adds	r3, r7, r3
 138 0012 0122     		movs	r2, #1
 139 0014 1A70     		strb	r2, [r3]
  38:serial.c      ****     
  39:serial.c      ****     char cmd[MAX_COMMAND_LENGTH];
  40:serial.c      ****     
  41:serial.c      ****     uint32 ch_received = 0;
 140              		.loc 1 41 0
 141 0016 0023     		movs	r3, #0
 142 0018 BB64     		str	r3, [r7, #72]
  42:serial.c      ****     
  43:serial.c      ****     ups(": ");
 143              		.loc 1 43 0
 144 001a 314B     		ldr	r3, .L12
 145 001c 1800     		movs	r0, r3
 146 001e FFF7FEFF 		bl	ups
  44:serial.c      ****     
  45:serial.c      ****     while (done != 1u || ch_received == MAX_COMMAND_LENGTH) 
 147              		.loc 1 45 0
 148 0022 37E0     		b	.L6
 149              	.L10:
  46:serial.c      ****     {
  47:serial.c      ****         ch = UART_UartGetChar();
 150              		.loc 1 47 0
 151 0024 FFF7FEFF 		bl	UART_UartGetChar
 152 0028 0300     		movs	r3, r0
 153 002a 7B64     		str	r3, [r7, #68]
 154 002c 4F23     		movs	r3, #79
 155 002e FB18     		adds	r3, r7, r3
 156 0030 4F22     		movs	r2, #79
 157 0032 BA18     		adds	r2, r7, r2
 158 0034 1278     		ldrb	r2, [r2]
 159 0036 1A70     		strb	r2, [r3]
 160 0038 4E23     		movs	r3, #78
 161 003a FB18     		adds	r3, r7, r3
 162 003c 4E22     		movs	r2, #78
 163 003e BA18     		adds	r2, r7, r2
 164 0040 1278     		ldrb	r2, [r2]
 165 0042 1A70     		strb	r2, [r3]
  48:serial.c      ****         
  49:serial.c      ****         if (ch != 0u)
 166              		.loc 1 49 0
 167 0044 7B6C     		ldr	r3, [r7, #68]
 168 0046 002B     		cmp	r3, #0
 169 0048 24D0     		beq	.L6
  50:serial.c      ****         {
  51:serial.c      ****             UART_UartPutChar(ch);
 170              		.loc 1 51 0
 171 004a 7B6C     		ldr	r3, [r7, #68]
ARM GAS  C:\Users\bnels\AppData\Local\Temp\ccXUBRyg.s 			page 5


 172 004c 1800     		movs	r0, r3
 173 004e FFF7FEFF 		bl	UART_SpiUartWriteTxData
  52:serial.c      ****             
  53:serial.c      ****             if (ch == ' ')
 174              		.loc 1 53 0
 175 0052 7B6C     		ldr	r3, [r7, #68]
 176 0054 202B     		cmp	r3, #32
 177 0056 06D1     		bne	.L7
  54:serial.c      ****                 args++;
 178              		.loc 1 54 0
 179 0058 4E23     		movs	r3, #78
 180 005a FB18     		adds	r3, r7, r3
 181 005c 1A78     		ldrb	r2, [r3]
 182 005e 4E23     		movs	r3, #78
 183 0060 FB18     		adds	r3, r7, r3
 184 0062 0132     		adds	r2, r2, #1
 185 0064 1A70     		strb	r2, [r3]
 186              	.L7:
  55:serial.c      ****             
  56:serial.c      ****             if (ch == '\r') 
 187              		.loc 1 56 0
 188 0066 7B6C     		ldr	r3, [r7, #68]
 189 0068 0D2B     		cmp	r3, #13
 190 006a 09D1     		bne	.L8
  57:serial.c      ****             {
  58:serial.c      ****                 done = 1u;
 191              		.loc 1 58 0
 192 006c 4F23     		movs	r3, #79
 193 006e FB18     		adds	r3, r7, r3
 194 0070 0122     		movs	r2, #1
 195 0072 1A70     		strb	r2, [r3]
  59:serial.c      ****                 cmd[ch_received] = '\0';
 196              		.loc 1 59 0
 197 0074 3A1D     		adds	r2, r7, #4
 198 0076 BB6C     		ldr	r3, [r7, #72]
 199 0078 D318     		adds	r3, r2, r3
 200 007a 0022     		movs	r2, #0
 201 007c 1A70     		strb	r2, [r3]
 202 007e 06E0     		b	.L9
 203              	.L8:
  60:serial.c      ****             } else 
  61:serial.c      ****             {
  62:serial.c      ****                 cmd[ch_received] = (char) ch;
 204              		.loc 1 62 0
 205 0080 7B6C     		ldr	r3, [r7, #68]
 206 0082 D9B2     		uxtb	r1, r3
 207 0084 3A1D     		adds	r2, r7, #4
 208 0086 BB6C     		ldr	r3, [r7, #72]
 209 0088 D318     		adds	r3, r2, r3
 210 008a 0A1C     		adds	r2, r1, #0
 211 008c 1A70     		strb	r2, [r3]
 212              	.L9:
  63:serial.c      ****             }
  64:serial.c      ****             
  65:serial.c      ****             ch_received++;
 213              		.loc 1 65 0
 214 008e BB6C     		ldr	r3, [r7, #72]
ARM GAS  C:\Users\bnels\AppData\Local\Temp\ccXUBRyg.s 			page 6


 215 0090 0133     		adds	r3, r3, #1
 216 0092 BB64     		str	r3, [r7, #72]
 217              	.L6:
  45:serial.c      ****     {
 218              		.loc 1 45 0
 219 0094 4F23     		movs	r3, #79
 220 0096 FB18     		adds	r3, r7, r3
 221 0098 1B78     		ldrb	r3, [r3]
 222 009a 012B     		cmp	r3, #1
 223 009c C2D1     		bne	.L10
  45:serial.c      ****     {
 224              		.loc 1 45 0 is_stmt 0 discriminator 1
 225 009e BB6C     		ldr	r3, [r7, #72]
 226 00a0 402B     		cmp	r3, #64
 227 00a2 BFD0     		beq	.L10
  66:serial.c      ****         }
  67:serial.c      ****     }
  68:serial.c      ****     
  69:serial.c      ****     ups("\r\nOK, thanks!\r\n");
 228              		.loc 1 69 0 is_stmt 1
 229 00a4 0F4B     		ldr	r3, .L12+4
 230 00a6 1800     		movs	r0, r3
 231 00a8 FFF7FEFF 		bl	ups
  70:serial.c      ****     ups("Your command: ");
 232              		.loc 1 70 0
 233 00ac 0E4B     		ldr	r3, .L12+8
 234 00ae 1800     		movs	r0, r3
 235 00b0 FFF7FEFF 		bl	ups
  71:serial.c      ****     ups(cmd);
 236              		.loc 1 71 0
 237 00b4 3B1D     		adds	r3, r7, #4
 238 00b6 1800     		movs	r0, r3
 239 00b8 FFF7FEFF 		bl	ups
  72:serial.c      ****     ups("\r\n");
 240              		.loc 1 72 0
 241 00bc 0B4B     		ldr	r3, .L12+12
 242 00be 1800     		movs	r0, r3
 243 00c0 FFF7FEFF 		bl	ups
  73:serial.c      ****     
  74:serial.c      ****     parse_command(cmd, args);
 244              		.loc 1 74 0
 245 00c4 4E23     		movs	r3, #78
 246 00c6 FB18     		adds	r3, r7, r3
 247 00c8 1A78     		ldrb	r2, [r3]
 248 00ca 3B1D     		adds	r3, r7, #4
 249 00cc 1100     		movs	r1, r2
 250 00ce 1800     		movs	r0, r3
 251 00d0 FFF7FEFF 		bl	parse_command
  75:serial.c      **** 
  76:serial.c      ****     return 0;
 252              		.loc 1 76 0
 253 00d4 0023     		movs	r3, #0
  77:serial.c      **** }
 254              		.loc 1 77 0
 255 00d6 1800     		movs	r0, r3
 256 00d8 BD46     		mov	sp, r7
 257 00da 14B0     		add	sp, sp, #80
ARM GAS  C:\Users\bnels\AppData\Local\Temp\ccXUBRyg.s 			page 7


 258              		@ sp needed
 259 00dc 80BD     		pop	{r7, pc}
 260              	.L13:
 261 00de C046     		.align	2
 262              	.L12:
 263 00e0 04000000 		.word	.LC2
 264 00e4 08000000 		.word	.LC4
 265 00e8 18000000 		.word	.LC6
 266 00ec 00000000 		.word	.LC0
 267              		.cfi_endproc
 268              	.LFE37:
 269              		.size	UART_GetInput, .-UART_GetInput
 270              		.section	.rodata
 271 0027 00       		.align	2
 272              	.LC9:
 273 0028 4C454420 		.ascii	"LED on\000"
 273      6F6E00
 274 002f 00       		.align	2
 275              	.LC11:
 276 0030 4C454420 		.ascii	"LED off\000"
 276      6F666600 
 277              		.align	2
 278              	.LC13:
 279 0038 7200     		.ascii	"r\000"
 280 003a 0000     		.align	2
 281              	.LC16:
 282 003c 256400   		.ascii	"%d\000"
 283 003f 00       		.align	2
 284              	.LC18:
 285 0040 41444320 		.ascii	"ADC value:\000"
 285      76616C75 
 285      653A00
 286 004b 00       		.align	2
 287              	.LC21:
 288 004c 4920646F 		.ascii	"I don't understand that command!\015\012\000"
 288      6E277420 
 288      756E6465 
 288      72737461 
 288      6E642074 
 289              		.section	.text.parse_command,"ax",%progbits
 290              		.align	2
 291              		.global	parse_command
 292              		.code	16
 293              		.thumb_func
 294              		.type	parse_command, %function
 295              	parse_command:
 296              	.LFB38:
  78:serial.c      **** 
  79:serial.c      **** /* Parse arguments. For now, only "LED on" and "LED off" are supported but eventually will 
  80:serial.c      ****    include support for parsing multiple args for "set value" operations */
  81:serial.c      **** int parse_command(char* cmd, uint8 args)
  82:serial.c      **** {
 297              		.loc 1 82 0
 298              		.cfi_startproc
 299              		@ args = 0, pretend = 0, frame = 40
 300              		@ frame_needed = 1, uses_anonymous_args = 0
 301 0000 80B5     		push	{r7, lr}
ARM GAS  C:\Users\bnels\AppData\Local\Temp\ccXUBRyg.s 			page 8


 302              		.cfi_def_cfa_offset 8
 303              		.cfi_offset 7, -8
 304              		.cfi_offset 14, -4
 305 0002 8AB0     		sub	sp, sp, #40
 306              		.cfi_def_cfa_offset 48
 307 0004 00AF     		add	r7, sp, #0
 308              		.cfi_def_cfa_register 7
 309 0006 7860     		str	r0, [r7, #4]
 310 0008 0A00     		movs	r2, r1
 311 000a FB1C     		adds	r3, r7, #3
 312 000c 1A70     		strb	r2, [r3]
  83:serial.c      ****     char buf[30];
  84:serial.c      ****     
  85:serial.c      ****     if (strcmp(cmd, "LED on") == 0)
 313              		.loc 1 85 0
 314 000e 234A     		ldr	r2, .L20
 315 0010 7B68     		ldr	r3, [r7, #4]
 316 0012 1100     		movs	r1, r2
 317 0014 1800     		movs	r0, r3
 318 0016 FFF7FEFF 		bl	strcmp
 319 001a 031E     		subs	r3, r0, #0
 320 001c 06D1     		bne	.L15
  86:serial.c      ****     {
  87:serial.c      ****         LED_ControlReg_Write(1u);
 321              		.loc 1 87 0
 322 001e 0120     		movs	r0, #1
 323 0020 FFF7FEFF 		bl	LED_ControlReg_Write
  88:serial.c      ****         TestControlReg_Write(1u);
 324              		.loc 1 88 0
 325 0024 0120     		movs	r0, #1
 326 0026 FFF7FEFF 		bl	TestControlReg_Write
 327 002a 31E0     		b	.L16
 328              	.L15:
  89:serial.c      ****     }
  90:serial.c      ****     else if (strcmp(cmd, "LED off") == 0) 
 329              		.loc 1 90 0
 330 002c 1C4A     		ldr	r2, .L20+4
 331 002e 7B68     		ldr	r3, [r7, #4]
 332 0030 1100     		movs	r1, r2
 333 0032 1800     		movs	r0, r3
 334 0034 FFF7FEFF 		bl	strcmp
 335 0038 031E     		subs	r3, r0, #0
 336 003a 06D1     		bne	.L17
  91:serial.c      ****     {
  92:serial.c      ****         LED_ControlReg_Write(0u);
 337              		.loc 1 92 0
 338 003c 0020     		movs	r0, #0
 339 003e FFF7FEFF 		bl	LED_ControlReg_Write
  93:serial.c      ****         TestControlReg_Write(0u);
 340              		.loc 1 93 0
 341 0042 0020     		movs	r0, #0
 342 0044 FFF7FEFF 		bl	TestControlReg_Write
 343 0048 22E0     		b	.L16
 344              	.L17:
  94:serial.c      ****     }
  95:serial.c      ****     else if (strcmp(cmd, "r") == 0)
 345              		.loc 1 95 0
ARM GAS  C:\Users\bnels\AppData\Local\Temp\ccXUBRyg.s 			page 9


 346 004a 164A     		ldr	r2, .L20+8
 347 004c 7B68     		ldr	r3, [r7, #4]
 348 004e 1100     		movs	r1, r2
 349 0050 1800     		movs	r0, r3
 350 0052 FFF7FEFF 		bl	strcmp
 351 0056 031E     		subs	r3, r0, #0
 352 0058 16D1     		bne	.L18
  96:serial.c      ****     {
  97:serial.c      ****         sprintf(buf, "%d", ADC_result);
 353              		.loc 1 97 0
 354 005a 134B     		ldr	r3, .L20+12
 355 005c 1B88     		ldrh	r3, [r3]
 356 005e 1A00     		movs	r2, r3
 357 0060 1249     		ldr	r1, .L20+16
 358 0062 0823     		movs	r3, #8
 359 0064 FB18     		adds	r3, r7, r3
 360 0066 1800     		movs	r0, r3
 361 0068 FFF7FEFF 		bl	sprintf
  98:serial.c      ****         ups("ADC value:");
 362              		.loc 1 98 0
 363 006c 104B     		ldr	r3, .L20+20
 364 006e 1800     		movs	r0, r3
 365 0070 FFF7FEFF 		bl	ups
  99:serial.c      ****         ups(buf);
 366              		.loc 1 99 0
 367 0074 0823     		movs	r3, #8
 368 0076 FB18     		adds	r3, r7, r3
 369 0078 1800     		movs	r0, r3
 370 007a FFF7FEFF 		bl	ups
 100:serial.c      ****         ups("\r\n");
 371              		.loc 1 100 0
 372 007e 0D4B     		ldr	r3, .L20+24
 373 0080 1800     		movs	r0, r3
 374 0082 FFF7FEFF 		bl	ups
 375 0086 03E0     		b	.L16
 376              	.L18:
 101:serial.c      ****     }
 102:serial.c      ****     else
 103:serial.c      ****         ups("I don't understand that command!\r\n");      
 377              		.loc 1 103 0
 378 0088 0B4B     		ldr	r3, .L20+28
 379 008a 1800     		movs	r0, r3
 380 008c FFF7FEFF 		bl	ups
 381              	.L16:
 104:serial.c      ****     return args;
 382              		.loc 1 104 0
 383 0090 FB1C     		adds	r3, r7, #3
 384 0092 1B78     		ldrb	r3, [r3]
 105:serial.c      **** }
 385              		.loc 1 105 0
 386 0094 1800     		movs	r0, r3
 387 0096 BD46     		mov	sp, r7
 388 0098 0AB0     		add	sp, sp, #40
 389              		@ sp needed
 390 009a 80BD     		pop	{r7, pc}
 391              	.L21:
 392              		.align	2
ARM GAS  C:\Users\bnels\AppData\Local\Temp\ccXUBRyg.s 			page 10


 393              	.L20:
 394 009c 28000000 		.word	.LC9
 395 00a0 30000000 		.word	.LC11
 396 00a4 38000000 		.word	.LC13
 397 00a8 00000000 		.word	ADC_result
 398 00ac 3C000000 		.word	.LC16
 399 00b0 40000000 		.word	.LC18
 400 00b4 00000000 		.word	.LC0
 401 00b8 4C000000 		.word	.LC21
 402              		.cfi_endproc
 403              	.LFE38:
 404              		.size	parse_command, .-parse_command
 405              		.text
 406              	.Letext0:
 407              		.file 2 "Generated_Source\\PSoC4/cytypes.h"